target datalayout = "e-m:e-p270:32:32-p271:32:32-p272:64:64-i64:64-i128:128-f80:128-n8:16:32:64-S128"
target triple = "x86_64-unknown-linux-gnu"

%union.anon = type { %struct.QTailQLink }
%struct.QTailQLink = type { ptr, ptr }
%struct.FWBootEntry = type { %union.anon.0, i32, ptr, ptr }
%union.anon.0 = type { %struct.QTailQLink }
%struct.MachineClass = type { %struct.ObjectClass, ptr, ptr, ptr, ptr, ptr, ptr, ptr, ptr, ptr, i32, i32, i32, i32, i32, i8, i8, ptr, ptr, ptr, ptr, ptr, ptr, i64, ptr, i8, i8, i8, i32, i8, i8, i32, ptr, ptr, i8, i8, i8, i8, i8, i8, i8, i8, %struct.SMPCompatProps, ptr, ptr, ptr, ptr, ptr, ptr, ptr }
%struct.ObjectClass = type { ptr, ptr, [4 x ptr], [4 x ptr], ptr, ptr }
%struct.SMPCompatProps = type { i8, i8, i8, i8, i8, i8 }
%struct.MachineState = type { %struct.Object, ptr, ptr, ptr, i32, ptr, i8, i8, i8, i8, ptr, i8, i8, i8, ptr, ptr, ptr, ptr, ptr, i64, i64, i64, %struct.BootConfiguration, ptr, ptr, ptr, ptr, ptr, ptr, %struct.CpuTopology, ptr, ptr }
%struct.Object = type { ptr, ptr, ptr, i32, ptr }
%struct.BootConfiguration = type { ptr, ptr, i8, i8, ptr, i8, i64, i8, i64, i8, i8 }
%struct.CpuTopology = type { i32, i32, i32, i32, i32, i32, i32, i32, i32 }

@fw_boot_order = internal global %union.anon { %struct.QTailQLink { ptr null, ptr @fw_boot_order } }, align 8
@current_machine = external global ptr, align 8
@.str.7 = private unnamed_addr constant [5 x i8] c"HALT\00", align 1
@.str.10 = private unnamed_addr constant [8 x i8] c"machine\00", align 1
@.str.11 = private unnamed_addr constant [98 x i8] c"/home/dtcxzyw/WorkSpace/Projects/compilers/llvm-opt-benchmark/bench/qemu/qemu/include/hw/boards.h\00", align 1
@__func__.MACHINE_GET_CLASS = private unnamed_addr constant [18 x i8] c"MACHINE_GET_CLASS\00", align 1

; Function Attrs: nounwind sspstrong uwtable
define internal ptr @MACHINE_GET_CLASS(ptr noundef %obj) #0 {
entry:
  %obj.addr = alloca ptr, align 8
  store ptr %obj, ptr %obj.addr, align 8
  %0 = load ptr, ptr %obj.addr, align 8
  %call = call ptr @object_get_class(ptr noundef %0)
  %call1 = call ptr @object_class_dynamic_cast_assert(ptr noundef %call, ptr noundef @.str.10, ptr noundef @.str.11, i32 noundef 23, ptr noundef @__func__.MACHINE_GET_CLASS)
  ret ptr %call1
}

; Function Attrs: nounwind sspstrong uwtable
define dso_local ptr @get_boot_devices_list(ptr noundef %size) #0 {
entry:
  %size.addr = alloca ptr, align 8
  %i = alloca ptr, align 8
  %total = alloca i64, align 8
  %list = alloca ptr, align 8
  %mc = alloca ptr, align 8
  %ignore_suffixes = alloca i8, align 1
  %bootpath = alloca ptr, align 8
  %len = alloca i64, align 8
  store ptr %size, ptr %size.addr, align 8
  store i64 0, ptr %total, align 8
  store ptr null, ptr %list, align 8
  %call = call ptr @qdev_get_machine()
  %call1 = call ptr @MACHINE_GET_CLASS(ptr noundef %call)
  store ptr %call1, ptr %mc, align 8
  %0 = load ptr, ptr %mc, align 8
  %ignore_boot_device_suffixes = getelementptr inbounds %struct.MachineClass, ptr %0, i32 0, i32 36
  %1 = load i8, ptr %ignore_boot_device_suffixes, align 2
  %tobool = trunc i8 %1 to i1
  %frombool = zext i1 %tobool to i8
  store i8 %frombool, ptr %ignore_suffixes, align 1
  %2 = load ptr, ptr @fw_boot_order, align 8
  store ptr %2, ptr %i, align 8
  br label %for.cond

for.cond:                                         ; preds = %for.inc, %entry
  %3 = load ptr, ptr %i, align 8
  %tobool2 = icmp ne ptr %3, null
  br i1 %tobool2, label %for.body, label %for.end

for.body:                                         ; preds = %for.cond
  %4 = load ptr, ptr %i, align 8
  %dev = getelementptr inbounds %struct.FWBootEntry, ptr %4, i32 0, i32 2
  %5 = load ptr, ptr %dev, align 8
  %6 = load i8, ptr %ignore_suffixes, align 1
  %tobool3 = trunc i8 %6 to i1
  %7 = load ptr, ptr %i, align 8
  %suffix = getelementptr inbounds %struct.FWBootEntry, ptr %7, i32 0, i32 3
  %8 = load ptr, ptr %suffix, align 8
  %call4 = call ptr @get_boot_device_path(ptr noundef %5, i1 noundef zeroext %tobool3, ptr noundef %8)
  store ptr %call4, ptr %bootpath, align 8
  %9 = load i64, ptr %total, align 8
  %tobool5 = icmp ne i64 %9, 0
  br i1 %tobool5, label %if.then, label %if.end

if.then:                                          ; preds = %for.body
  %10 = load ptr, ptr %list, align 8
  %11 = load i64, ptr %total, align 8
  %sub = sub i64 %11, 1
  %arrayidx = getelementptr i8, ptr %10, i64 %sub
  store i8 10, ptr %arrayidx, align 1
  br label %if.end

if.end:                                           ; preds = %if.then, %for.body
  %12 = load ptr, ptr %bootpath, align 8
  %call6 = call i64 @strlen(ptr noundef %12) #9
  %add = add i64 %call6, 1
  store i64 %add, ptr %len, align 8
  %13 = load ptr, ptr %list, align 8
  %14 = load i64, ptr %total, align 8
  %15 = load i64, ptr %len, align 8
  %add7 = add i64 %14, %15
  %call8 = call ptr @g_realloc(ptr noundef %13, i64 noundef %add7)
  store ptr %call8, ptr %list, align 8
  %16 = load ptr, ptr %list, align 8
  %17 = load i64, ptr %total, align 8
  %arrayidx9 = getelementptr i8, ptr %16, i64 %17
  %18 = load ptr, ptr %bootpath, align 8
  %19 = load i64, ptr %len, align 8
  call void @llvm.memcpy.p0.p0.i64(ptr align 1 %arrayidx9, ptr align 1 %18, i64 %19, i1 false)
  %20 = load i64, ptr %len, align 8
  %21 = load i64, ptr %total, align 8
  %add10 = add i64 %21, %20
  store i64 %add10, ptr %total, align 8
  %22 = load ptr, ptr %bootpath, align 8
  call void @g_free(ptr noundef %22)
  br label %for.inc

for.inc:                                          ; preds = %if.end
  %23 = load ptr, ptr %i, align 8
  %link = getelementptr inbounds %struct.FWBootEntry, ptr %23, i32 0, i32 0
  %24 = load ptr, ptr %link, align 8
  store ptr %24, ptr %i, align 8
  br label %for.cond, !llvm.loop !11

for.end:                                          ; preds = %for.cond
  %25 = load i64, ptr %total, align 8
  %26 = load ptr, ptr %size.addr, align 8
  store i64 %25, ptr %26, align 8
  %27 = load ptr, ptr @current_machine, align 8
  %boot_config = getelementptr inbounds %struct.MachineState, ptr %27, i32 0, i32 22
  %has_strict = getelementptr inbounds %struct.BootConfiguration, ptr %boot_config, i32 0, i32 9
  %28 = load i8, ptr %has_strict, align 8
  %tobool11 = trunc i8 %28 to i1
  br i1 %tobool11, label %land.lhs.true, label %if.end22

land.lhs.true:                                    ; preds = %for.end
  %29 = load ptr, ptr @current_machine, align 8
  %boot_config12 = getelementptr inbounds %struct.MachineState, ptr %29, i32 0, i32 22
  %strict = getelementptr inbounds %struct.BootConfiguration, ptr %boot_config12, i32 0, i32 10
  %30 = load i8, ptr %strict, align 1
  %tobool13 = trunc i8 %30 to i1
  br i1 %tobool13, label %land.lhs.true14, label %if.end22

land.lhs.true14:                                  ; preds = %land.lhs.true
  %31 = load ptr, ptr %size.addr, align 8
  %32 = load i64, ptr %31, align 8
  %cmp = icmp ugt i64 %32, 0
  br i1 %cmp, label %if.then15, label %if.end22

if.then15:                                        ; preds = %land.lhs.true14
  %33 = load ptr, ptr %list, align 8
  %34 = load i64, ptr %total, align 8
  %sub16 = sub i64 %34, 1
  %arrayidx17 = getelementptr i8, ptr %33, i64 %sub16
  store i8 10, ptr %arrayidx17, align 1
  %35 = load ptr, ptr %list, align 8
  %36 = load i64, ptr %total, align 8
  %add18 = add i64 %36, 5
  %call19 = call ptr @g_realloc(ptr noundef %35, i64 noundef %add18)
  store ptr %call19, ptr %list, align 8
  %37 = load ptr, ptr %list, align 8
  %38 = load i64, ptr %total, align 8
  %arrayidx20 = getelementptr i8, ptr %37, i64 %38
  call void @llvm.memcpy.p0.p0.i64(ptr align 1 %arrayidx20, ptr align 1 @.str.7, i64 5, i1 false)
  %39 = load i64, ptr %total, align 8
  %add21 = add i64 %39, 5
  %40 = load ptr, ptr %size.addr, align 8
  store i64 %add21, ptr %40, align 8
  br label %if.end22

if.end22:                                         ; preds = %if.then15, %land.lhs.true14, %land.lhs.true, %for.end
  %41 = load ptr, ptr %list, align 8
  ret ptr %41
}