; Function Attrs: nounwind sspstrong uwtable
define dso_local ptr @get_boot_devices_list(ptr noundef writeonly captures(none) %size) local_unnamed_addr #1 {
entry:
  %call = tail call ptr @qdev_get_machine() #11
  %call.i = tail call ptr @object_get_class(ptr noundef %call) #11
  %call1.i = tail call ptr @object_class_dynamic_cast_assert(ptr noundef %call.i, ptr noundef nonnull @.str.10, ptr noundef nonnull @.str.11, i32 noundef 23, ptr noundef nonnull @__func__.MACHINE_GET_CLASS) #11
  %ignore_boot_device_suffixes = getelementptr inbounds nuw i8, ptr %call1.i, i64 290
  %0 = load i8, ptr %ignore_boot_device_suffixes, align 2
  %tobool = trunc i8 %0 to i1
  %i.025 = load ptr, ptr @fw_boot_order, align 8
  %tobool2.not26 = icmp eq ptr %i.025, null
  br i1 %tobool2.not26, label %for.end, label %for.body

for.body:                                         ; preds = %entry, %if.end
  %i.029 = phi ptr [ %i.0, %if.end ], [ %i.025, %entry ]
  %total.028 = phi i64 [ %add7, %if.end ], [ 0, %entry ]
  %list.027 = phi ptr [ %call8, %if.end ], [ null, %entry ]
  %dev = getelementptr inbounds nuw i8, ptr %i.029, i64 24
  %1 = load ptr, ptr %dev, align 8
  %suffix = getelementptr inbounds nuw i8, ptr %i.029, i64 32
  %2 = load ptr, ptr %suffix, align 8
  %call4 = tail call fastcc ptr @get_boot_device_path(ptr noundef %1, i1 noundef zeroext %tobool, ptr noundef %2)
  %tobool5.not = icmp eq i64 %total.028, 0
  br i1 %tobool5.not, label %if.end, label %if.then

if.then:                                          ; preds = %for.body
  %3 = getelementptr i8, ptr %list.027, i64 %total.028
  %arrayidx = getelementptr i8, ptr %3, i64 -1
  store i8 10, ptr %arrayidx, align 1
  br label %if.end

if.end:                                           ; preds = %if.then, %for.body
  %call6 = tail call i64 @strlen(ptr noundef nonnull dereferenceable(1) %call4) #15
  %add = add i64 %call6, 1
  %add7 = add i64 %add, %total.028
  %call8 = tail call ptr @g_realloc(ptr noundef %list.027, i64 noundef %add7) #11
  %arrayidx9 = getelementptr i8, ptr %call8, i64 %total.028
  tail call void @llvm.memcpy.p0.p0.i64(ptr align 1 %arrayidx9, ptr nonnull align 1 %call4, i64 %add, i1 false)
  tail call void @g_free(ptr noundef nonnull %call4) #11
  %i.0 = load ptr, ptr %i.029, align 8
  %tobool2.not = icmp eq ptr %i.0, null
  br i1 %tobool2.not, label %for.end, label %for.body, !llvm.loop !11

for.end:                                          ; preds = %if.end, %entry
  %list.0.lcssa = phi ptr [ null, %entry ], [ %call8, %if.end ]
  %total.0.lcssa = phi i64 [ 0, %entry ], [ %add7, %if.end ]
  store i64 %total.0.lcssa, ptr %size, align 8
  %4 = load ptr, ptr @current_machine, align 8
  %has_strict = getelementptr inbounds nuw i8, ptr %4, i64 232
  %5 = load i8, ptr %has_strict, align 8
  %tobool11 = trunc i8 %5 to i1
  br i1 %tobool11, label %land.lhs.true, label %if.end22

land.lhs.true:                                    ; preds = %for.end
  %strict = getelementptr inbounds nuw i8, ptr %4, i64 233
  %6 = load i8, ptr %strict, align 1
  %tobool13 = trunc i8 %6 to i1
  %cmp.not = icmp ne i64 %total.0.lcssa, 0
  %or.cond.not = and i1 %cmp.not, %tobool13
  br i1 %or.cond.not, label %if.then15, label %if.end22

if.then15:                                        ; preds = %land.lhs.true
  %7 = getelementptr i8, ptr %list.0.lcssa, i64 %total.0.lcssa
  %arrayidx17 = getelementptr i8, ptr %7, i64 -1
  store i8 10, ptr %arrayidx17, align 1
  %add18 = add i64 %total.0.lcssa, 5
  %call19 = tail call ptr @g_realloc(ptr noundef %list.0.lcssa, i64 noundef %add18) #11
  %arrayidx20 = getelementptr i8, ptr %call19, i64 %total.0.lcssa
  tail call void @llvm.memcpy.p0.p0.i64(ptr noundef nonnull align 1 dereferenceable(5) %arrayidx20, ptr noundef nonnull align 1 dereferenceable(5) @.str.7, i64 5, i1 false)
  store i64 %add18, ptr %size, align 8
  br label %if.end22

if.end22:                                         ; preds = %if.then15, %land.lhs.true, %for.end
  %list.1 = phi ptr [ %call19, %if.then15 ], [ %list.0.lcssa, %land.lhs.true ], [ %list.0.lcssa, %for.end ]
  ret ptr %list.1
}